Certificate:
    Data:
        Version: 3 (0x2)
        Serial Number: 2 (0x2)
        Signature Algorithm: sha256WithRSAEncryption
        Issuer: C=US, ST=Virginia, L=Manassas, O=Acme Ltd, OU=CA, CN=CA
        Validity
            Not Before: May  2 13:07:47 2021 GMT
            Not After : May  2 13:07:47 2023 GMT
        Subject: C=US, ST=Virginia, O=Acme Ltd, CN=minikube
        Subject Public Key Info:
            Public Key Algorithm: rsaEncryption
                RSA Public-Key: (2048 bit)
                Modulus:
                    00:9c:02:f7:94:c6:b0:f4:89:9b:33:5a:76:eb:ae:
                    fa:e9:3c:8c:61:7f:42:3c:1b:eb:f8:ed:91:12:fe:
                    33:0a:3e:2c:5d:ef:c7:dc:08:1e:c5:52:4a:bc:89:
                    86:47:96:60:c0:0e:40:8b:e4:93:cc:4f:3d:72:39:
                    63:a1:fa:86:26:6b:ae:40:09:ed:56:58:b2:b3:b0:
                    20:0f:85:dd:e5:f4:91:25:a0:d3:b6:ae:ed:68:01:
                    4a:f6:25:df:d4:45:de:c6:13:03:b3:89:e7:69:de:
                    53:04:0d:16:ee:77:a0:31:2d:68:25:3d:08:f2:a3:
                    77:be:d7:c4:34:0b:0a:85:50:d1:04:3e:e1:a9:5b:
                    7f:0b:70:26:57:6e:57:29:86:c7:3a:e0:44:65:aa:
                    00:7a:2d:a1:8d:14:89:db:e0:69:5d:77:0b:c4:4c:
                    76:c2:c1:30:5f:39:3d:a7:b3:3c:ca:70:ed:d4:c9:
                    19:9a:18:27:ad:3e:0e:d5:5b:ab:07:89:88:d0:47:
                    37:28:4f:8a:18:44:44:52:28:6f:4c:70:f1:b7:9c:
                    36:b5:9f:08:15:e6:32:ad:11:89:7a:d3:0a:35:a7:
                    c3:85:e2:79:5f:75:56:32:e8:f2:99:62:3a:57:4d:
                    51:67:de:bb:e6:e1:53:97:b7:0e:5f:1e:b9:2d:36:
                    05:99
                Exponent: 65537 (0x10001)
        X509v3 extensions:
            X509v3 Subject Alternative Name: 
                DNS:*.local, DNS:minikube
            X509v3 Basic Constraints: critical
                CA:FALSE
            X509v3 Key Usage: critical
                Digital Signature, Certificate Sign
    Signature Algorithm: sha256WithRSAEncryption
         70:9c:f9:ac:c0:b9:22:4a:76:63:f4:1f:50:12:be:ec:e5:aa:
         a9:e6:cc:7e:d7:25:02:9f:30:dc:d5:e3:cb:c2:6d:5e:5f:13:
         0c:64:fc:b9:a2:99:51:2d:66:19:7b:51:14:62:fe:7d:1a:66:
         f3:59:7e:8e:d2:f4:47:ac:69:28:3f:ac:63:f0:8e:13:89:ad:
         85:74:3b:73:21:b8:8b:ce:7a:2d:6e:4c:88:0b:fc:10:17:8f:
         05:11:9d:32:14:77:c1:7b:46:18:fe:04:c3:47:d5:a7:8b:26:
         73:c8:83:86:e8:73:34:36:cc:c5:29:6a:3f:64:96:1b:35:fe:
         6f:47:37:95:02:4d:73:84:d9:b2:45:15:9c:a2:0c:a7:9f:13:
         b1:5b:67:9a:a9:f7:a7:ee:b2:c6:ac:68:36:d6:e3:75:15:b6:
         36:3d:72:4c:a9:3c:21:b0:a0:93:5b:3b:52:ca:c8:85:49:37:
         ec:09:f0:ff:c1:19:5b:c0:ab:a7:10:68:4f:4f:40:75:f4:cf:
         ac:92:ef:79:82:4b:e4:07:f9:0b:ec:47:21:76:47:77:24:8c:
         81:7f:d8:aa:95:75:de:de:4e:0d:57:26:25:7a:83:1a:88:94:
         0c:42:fb:0d:9a:2f:be:ca:0a:da:6a:f5:4d:a6:6e:f6:aa:d6:
         5f:81:0b:a3:3e:b9:ef:db:20:b2:2a:59:ed:e3:f9:37:e4:02:
         bd:94:a3:ad:5c:a6:3b:f6:26:2a:52:23:0e:30:df:22:ba:60:
         ac:f8:97:71:bb:5f:0f:43:4f:84:fd:d9:f5:1a:6e:fb:1a:c6:
         d4:41:a6:02:a5:81:55:8d:ba:c7:db:f1:03:58:10:ce:19:4a:
         b3:d9:a1:1e:39:5e:86:d7:e4:92:d7:fd:fa:c5:9c:d5:22:ee:
         fc:56:64:66:dc:d2:df:f5:10:84:cb:5b:0c:fb:15:5a:03:de:
         4e:28:fd:5e:c4:f3:40:56:c0:02:67:f0:c3:1f:78:b5:98:a9:
         2e:5a:85:20:99:a5:d7:9a:55:ac:93:6e:4c:6c:27:e4:50:91:
         64:f1:18:20:72:51:20:9e:56:11:2d:0f:b2:55:7e:b3:51:69:
         40:39:63:f6:63:1f:44:eb:23:83:8c:d4:29:1d:1f:1e:ed:22:
         51:dd:6e:67:94:f9:2f:2e:a5:e0:2e:50:80:67:2d:b9:b0:4f:
         f1:04:4c:7a:67:9e:7d:81:8b:b7:05:4c:c5:cb:a9:5c:a4:55:
         a0:a6:b3:7e:cb:ce:c5:f1:db:1f:20:8c:13:0f:9a:85:96:ef:
         14:99:38:3e:07:ef:a0:e2:eb:99:2c:b0:a8:ce:ef:c5:02:9a:
         2d:2f:64:e5:bd:13:22:44
-----BEGIN CERTIFICATE-----
MIIEXzCCAkegAwIBAgIBAjANBgkqhkiG9w0BAQsFADBgMQswCQYDVQQGEwJVUzER
MA8GA1UECAwIVmlyZ2luaWExETAPBgNVBAcMCE1hbmFzc2FzMREwDwYDVQQKDAhB
Y21lIEx0ZDELMAkGA1UECwwCQ0ExCzAJBgNVBAMMAkNBMB4XDTIxMDUwMjEzMDc0
N1oXDTIzMDUwMjEzMDc0N1owRjELMAkGA1UEBhMCVVMxETAPBgNVBAgMCFZpcmdp
bmlhMREwDwYDVQQKDAhBY21lIEx0ZDERMA8GA1UEAwwIbWluaWt1YmUwggEiMA0G
CSqGSIb3DQEBAQUAA4IBDwAwggEKAoIBAQCcAveUxrD0iZszWnbrrvrpPIxhf0I8
G+v47ZES/jMKPixd78fcCB7FUkq8iYZHlmDADkCL5JPMTz1yOWOh+oYma65ACe1W
WLKzsCAPhd3l9JEloNO2ru1oAUr2Jd/URd7GEwOziedp3lMEDRbud6AxLWglPQjy
o3e+18Q0CwqFUNEEPuGpW38LcCZXblcphsc64ERlqgB6LaGNFInb4GlddwvETHbC
wTBfOT2nszzKcO3UyRmaGCetPg7VW6sHiYjQRzcoT4oYRERSKG9McPG3nDa1nwgV
5jKtEYl60wo1p8OF4nlfdVYy6PKZYjpXTVFn3rvm4VOXtw5fHrktNgWZAgMBAAGj
PjA8MBwGA1UdEQQVMBOCByoubG9jYWyCCG1pbmlrdWJlMAwGA1UdEwEB/wQCMAAw
DgYDVR0PAQH/BAQDAgKEMA0GCSqGSIb3DQEBCwUAA4ICAQBwnPmswLkiSnZj9B9Q
Er7s5aqp5sx+1yUCnzDc1ePLwm1eXxMMZPy5oplRLWYZe1EUYv59GmbzWX6O0vRH
rGkoP6xj8I4Tia2FdDtzIbiLznotbkyIC/wQF48FEZ0yFHfBe0YY/gTDR9WniyZz
yIOG6HM0NszFKWo/ZJYbNf5vRzeVAk1zhNmyRRWcogynnxOxW2eaqfen7rLGrGg2
1uN1FbY2PXJMqTwhsKCTWztSysiFSTfsCfD/wRlbwKunEGhPT0B19M+sku95gkvk
B/kL7Echdkd3JIyBf9iqlXXe3k4NVyYleoMaiJQMQvsNmi++ygraavVNpm72qtZf
gQujPrnv2yCyKlnt4/k35AK9lKOtXKY79iYqUiMOMN8iumCs+Jdxu18PQ0+E/dn1
Gm77GsbUQaYCpYFVjbrH2/EDWBDOGUqz2aEeOV6G1+SS1/36xZzVIu78VmRm3NLf
9RCEy1sM+xVaA95OKP1exPNAVsACZ/DDH3i1mKkuWoUgmaXXmlWsk25MbCfkUJFk
8RggclEgnlYRLQ+yVX6zUWlAOWP2Yx9E6yODjNQpHR8e7SJR3W5nlPkvLqXgLlCA
Zy25sE/xBEx6Z559gYu3BUzFy6lcpFWgprN+y87F8dsfIIwTD5qFlu8UmTg+B++g
4uuZLLCozu/FApotL2TlvRMiRA==
-----END CERTIFICATE-----
