Certificate:
    Data:
        Version: 3 (0x2)
        Serial Number: 3 (0x3)
        Signature Algorithm: sha256WithRSAEncryption
        Issuer: C=US, ST=Virginia, L=Manassas, O=Acme Ltd, OU=CA, CN=CA
        Validity
            Not Before: May  2 13:33:29 2021 GMT
            Not After : May  2 13:33:29 2023 GMT
        Subject: C=US, ST=Virginia, O=Acme Ltd, CN=minikube
        Subject Public Key Info:
            Public Key Algorithm: rsaEncryption
                RSA Public-Key: (2048 bit)
                Modulus:
                    00:98:64:44:ef:04:b4:2e:56:95:64:0e:ff:44:ee:
                    f2:19:a9:ce:7f:19:bb:4e:bf:3b:b5:10:03:b8:6f:
                    7c:e3:47:9e:8e:91:58:30:f7:ef:94:cc:09:d8:90:
                    6f:87:5d:42:4e:03:e3:cf:7a:29:45:93:30:cb:b0:
                    08:1c:00:3c:6d:ba:fe:a0:c7:11:6b:f3:8c:b1:0a:
                    1f:fb:64:a0:44:15:1e:06:38:e8:7d:9a:77:a1:46:
                    b0:46:b7:4d:47:7a:68:49:e4:d2:7b:8d:e7:36:d6:
                    82:d0:a2:67:26:e7:91:c6:d6:a8:01:fb:2e:7a:10:
                    7c:b6:56:dc:a5:39:4c:76:28:22:7e:92:8e:b1:9b:
                    af:d8:c4:7e:3a:32:b8:46:b6:52:34:63:dc:80:5e:
                    e9:9a:55:e0:60:63:54:ee:f5:5b:4f:ab:e9:1d:65:
                    7a:a3:83:9e:2a:aa:89:fe:54:8d:58:46:f4:ae:e8:
                    f0:fb:a5:62:8d:c6:16:0c:03:e3:f2:47:e2:13:85:
                    2e:b7:cc:9b:d8:9f:9f:4b:10:1c:e8:b6:fe:08:54:
                    5c:ee:04:d7:4f:13:5d:8c:d0:7e:64:69:8b:e7:f1:
                    a8:ea:14:a7:77:7e:19:f1:0a:ea:7f:30:23:be:8c:
                    31:aa:ed:02:20:a8:b9:37:26:27:6a:b4:66:d0:42:
                    f2:1b
                Exponent: 65537 (0x10001)
        X509v3 extensions:
            X509v3 Subject Alternative Name: 
                DNS:*.local, DNS:minikube, DNS:*.fios-router.home
            X509v3 Basic Constraints: critical
                CA:FALSE
            X509v3 Key Usage: critical
                Digital Signature, Certificate Sign
    Signature Algorithm: sha256WithRSAEncryption
         08:40:32:59:dd:0f:ad:33:ee:40:18:95:52:e7:9f:e7:d8:61:
         e6:79:f8:9d:f7:3c:29:8d:1c:ad:15:00:e7:b4:ad:24:3f:28:
         99:02:f2:4a:cd:f2:ce:66:02:30:c3:5f:b7:8c:c8:39:68:20:
         a8:fd:5c:c7:f9:18:1f:21:c7:e6:ca:98:ec:d8:91:70:c6:4f:
         84:4f:e8:06:f4:09:cf:2b:b8:1a:67:02:46:4f:ba:63:45:e4:
         84:67:58:e0:49:de:fc:72:c6:d1:0c:ca:6d:b6:21:3e:17:2a:
         3a:e7:47:e5:33:10:70:b6:6d:1a:08:b6:1b:56:75:08:e7:c9:
         c3:59:5b:10:4e:2f:24:48:1d:74:9f:9b:6d:e7:df:39:df:f5:
         8d:11:08:61:7a:d4:5d:43:9f:1f:79:1e:28:2d:98:91:bb:f3:
         56:28:d5:d9:05:4b:2e:9d:b8:3c:e5:b0:b8:9b:12:12:e8:41:
         05:0e:58:00:87:fe:74:e0:ea:a6:80:3f:05:49:51:d0:ad:ff:
         5b:58:13:83:40:e2:59:79:3f:e2:c8:b6:b5:79:b3:7a:b4:88:
         d3:4b:1b:da:82:60:c3:25:0b:5a:91:60:c0:83:d5:97:10:63:
         a3:f6:08:57:b3:ad:67:3b:6f:49:ec:4b:d9:6b:33:70:e9:a9:
         00:ad:48:8c:6c:a6:e5:15:73:f6:eb:ce:ac:36:c1:f7:38:1a:
         2b:49:6d:07:7b:c1:e1:af:51:bc:8c:9a:3f:c1:9e:6c:4a:e0:
         3d:66:07:24:14:99:3b:12:f6:ef:8f:f7:e2:a2:14:09:1b:48:
         f0:97:b2:6e:4a:35:eb:6a:8f:3d:a1:3c:84:cd:7c:de:e2:56:
         d8:e6:6f:50:fc:13:79:eb:fa:86:fa:9c:d2:4c:54:b1:f4:fb:
         bf:df:ac:ec:a7:46:13:53:2e:6c:e5:a3:0f:d8:2f:1c:56:54:
         ab:11:eb:f9:f0:cd:9b:2c:91:38:05:9d:b9:47:3c:5c:30:7e:
         21:93:3d:c1:ac:e9:26:a3:59:21:19:66:13:a4:cd:3a:29:70:
         55:9a:e7:6c:b7:63:1c:af:a2:50:82:b1:e0:4c:19:39:5a:0e:
         fb:2e:c4:16:e3:a6:ae:38:2b:10:82:62:b6:8b:9f:79:74:7b:
         19:8e:d0:e1:78:91:9b:df:9c:4a:d3:46:34:ee:dc:b1:27:1c:
         81:8d:0a:8f:30:3b:79:d8:a2:fa:73:34:3b:65:16:95:d4:95:
         93:48:21:6c:de:05:1e:18:87:4e:43:5a:05:09:b2:7b:6a:bf:
         8b:b4:14:aa:e5:52:79:22:17:3c:68:96:d7:17:b2:6c:62:59:
         69:3a:ce:0e:8a:20:a8:1a
-----BEGIN CERTIFICATE-----
MIIEczCCAlugAwIBAgIBAzANBgkqhkiG9w0BAQsFADBgMQswCQYDVQQGEwJVUzER
MA8GA1UECAwIVmlyZ2luaWExETAPBgNVBAcMCE1hbmFzc2FzMREwDwYDVQQKDAhB
Y21lIEx0ZDELMAkGA1UECwwCQ0ExCzAJBgNVBAMMAkNBMB4XDTIxMDUwMjEzMzMy
OVoXDTIzMDUwMjEzMzMyOVowRjELMAkGA1UEBhMCVVMxETAPBgNVBAgMCFZpcmdp
bmlhMREwDwYDVQQKDAhBY21lIEx0ZDERMA8GA1UEAwwIbWluaWt1YmUwggEiMA0G
CSqGSIb3DQEBAQUAA4IBDwAwggEKAoIBAQCYZETvBLQuVpVkDv9E7vIZqc5/GbtO
vzu1EAO4b3zjR56OkVgw9++UzAnYkG+HXUJOA+PPeilFkzDLsAgcADxtuv6gxxFr
84yxCh/7ZKBEFR4GOOh9mnehRrBGt01HemhJ5NJ7jec21oLQomcm55HG1qgB+y56
EHy2VtylOUx2KCJ+ko6xm6/YxH46MrhGtlI0Y9yAXumaVeBgY1Tu9VtPq+kdZXqj
g54qqon+VI1YRvSu6PD7pWKNxhYMA+PyR+IThS63zJvYn59LEBzotv4IVFzuBNdP
E12M0H5kaYvn8ajqFKd3fhnxCup/MCO+jDGq7QIgqLk3JidqtGbQQvIbAgMBAAGj
UjBQMDAGA1UdEQQpMCeCByoubG9jYWyCCG1pbmlrdWJlghIqLmZpb3Mtcm91dGVy
LmhvbWUwDAYDVR0TAQH/BAIwADAOBgNVHQ8BAf8EBAMCAoQwDQYJKoZIhvcNAQEL
BQADggIBAAhAMlndD60z7kAYlVLnn+fYYeZ5+J33PCmNHK0VAOe0rSQ/KJkC8krN
8s5mAjDDX7eMyDloIKj9XMf5GB8hx+bKmOzYkXDGT4RP6Ab0Cc8ruBpnAkZPumNF
5IRnWOBJ3vxyxtEMym22IT4XKjrnR+UzEHC2bRoIthtWdQjnycNZWxBOLyRIHXSf
m23n3znf9Y0RCGF61F1Dnx95HigtmJG781Yo1dkFSy6duDzlsLibEhLoQQUOWACH
/nTg6qaAPwVJUdCt/1tYE4NA4ll5P+LItrV5s3q0iNNLG9qCYMMlC1qRYMCD1ZcQ
Y6P2CFezrWc7b0nsS9lrM3DpqQCtSIxspuUVc/brzqw2wfc4GitJbQd7weGvUbyM
mj/BnmxK4D1mByQUmTsS9u+P9+KiFAkbSPCXsm5KNetqjz2hPITNfN7iVtjmb1D8
E3nr+ob6nNJMVLH0+7/frOynRhNTLmzlow/YLxxWVKsR6/nwzZsskTgFnblHPFww
fiGTPcGs6SajWSEZZhOkzTopcFWa52y3YxyvolCCseBMGTlaDvsuxBbjpq44KxCC
YraLn3l0exmO0OF4kZvfnErTRjTu3LEnHIGNCo8wO3nYovpzNDtlFpXUlZNIIWze
BR4Yh05DWgUJsntqv4u0FKrlUnkiFzxoltcXsmxiWWk6zg6KIKga
-----END CERTIFICATE-----
